; Function Attrs: mustprogress nounwind uwtable
define hidden noundef nonnull ptr @_ZN10duckdb_re29Prefilter8SimplifyEv(ptr noundef nonnull align 8 dereferenceable(52) %0) local_unnamed_addr #2 align 2 personality ptr @__gxx_personality_v0 {
  %2 = load i32, ptr %0, align 8, !tbaa !13
  %.off8 = add i32 %2, -3
  %switch9 = icmp ult i32 %.off8, 2
  br i1 %switch9, label %.lr.ph.preheader, label %.loopexit

.lr.ph.preheader:                                 ; preds = %1
  %3 = getelementptr inbounds nuw i8, ptr %0, i64 8
  %4 = load ptr, ptr %3, align 8, !tbaa !18
  %5 = load ptr, ptr %4, align 8, !tbaa !28
  %6 = getelementptr inbounds nuw i8, ptr %4, i64 8
  %7 = load ptr, ptr %6, align 8, !tbaa !28
  %8 = icmp eq ptr %5, %7
  br i1 %8, label %.lr.ph._crit_edge, label %.lr.ph19

.lr.ph:                                           ; preds = %_ZNSt6vectorIPN10duckdb_re29PrefilterESaIS2_EE5clearEv.exit
  %9 = getelementptr inbounds nuw i8, ptr %23, i64 8
  %10 = load ptr, ptr %9, align 8, !tbaa !18
  %11 = load ptr, ptr %10, align 8, !tbaa !28
  %12 = getelementptr inbounds nuw i8, ptr %10, i64 8
  %13 = load ptr, ptr %12, align 8, !tbaa !28
  %14 = icmp eq ptr %11, %13
  br i1 %14, label %.lr.ph._crit_edge, label %.lr.ph19

.lr.ph._crit_edge:                                ; preds = %.lr.ph, %.lr.ph.preheader
  %.lcssa = phi i32 [ %2, %.lr.ph.preheader ], [ %24, %.lr.ph ]
  %.tr10.lcssa = phi ptr [ %0, %.lr.ph.preheader ], [ %23, %.lr.ph ]
  %15 = icmp ne i32 %.lcssa, 3
  %. = zext i1 %15 to i32
  store i32 %., ptr %.tr10.lcssa, align 8, !tbaa !13
  br label %.loopexit

.lr.ph19:                                         ; preds = %.lr.ph.preheader, %.lr.ph
  %16 = phi ptr [ %13, %.lr.ph ], [ %7, %.lr.ph.preheader ]
  %17 = phi ptr [ %12, %.lr.ph ], [ %6, %.lr.ph.preheader ]
  %18 = phi ptr [ %11, %.lr.ph ], [ %5, %.lr.ph.preheader ]
  %.tr1018 = phi ptr [ %23, %.lr.ph ], [ %0, %.lr.ph.preheader ]
  %19 = ptrtoint ptr %16 to i64
  %20 = ptrtoint ptr %18 to i64
  %21 = sub i64 %19, %20
  %22 = icmp eq i64 %21, 8
  br i1 %22, label %_ZNSt6vectorIPN10duckdb_re29PrefilterESaIS2_EE5clearEv.exit, label %.loopexit

_ZNSt6vectorIPN10duckdb_re29PrefilterESaIS2_EE5clearEv.exit: ; preds = %.lr.ph19
  %23 = load ptr, ptr %18, align 8, !tbaa !23
  store ptr %18, ptr %17, align 8, !tbaa !19
  tail call void @_ZN10duckdb_re29PrefilterD2Ev(ptr noundef nonnull align 8 dereferenceable(52) %.tr1018) #21
  tail call void @_ZdlPv(ptr noundef nonnull %.tr1018) #22
  %24 = load i32, ptr %23, align 8, !tbaa !13
  %.off = add i32 %24, -3
  %switch = icmp ult i32 %.off, 2
  br i1 %switch, label %.lr.ph, label %.loopexit

.loopexit:                                        ; preds = %.lr.ph19, %_ZNSt6vectorIPN10duckdb_re29PrefilterESaIS2_EE5clearEv.exit, %1, %.lr.ph._crit_edge
  %.tr7 = phi ptr [ %.tr10.lcssa, %.lr.ph._crit_edge ], [ %0, %1 ], [ %.tr1018, %.lr.ph19 ], [ %23, %_ZNSt6vectorIPN10duckdb_re29PrefilterESaIS2_EE5clearEv.exit ]
  ret ptr %.tr7
}